(dp0
I4033
(dp1
Vlikes
p2
(dp3
Vcount
p4
I11
ssVattachments
p5
(lp6
(dp7
Vphoto
p8
(dp9
Vaccess_key
p10
Vf07c642d38085f6b13
p11
sVsrc
p12
Vhttp://cs631116.vk.me/v631116050/43569/8EE2myJcPDk.jpg
p13
sVuser_id
p14
I100
sVsrc_xbig
p15
Vhttp://cs631116.vk.me/v631116050/4356b/dGvI9h__st0.jpg
p16
sVtext
p17
V
p18
sVcreated
p19
I1471590737
sVpid
p20
I430286168
sVheight
p21
I731
sVsrc_xxbig
p22
Vhttp://cs631116.vk.me/v631116050/4356c/P-jqioeMtlQ.jpg
p23
sVwidth
p24
I1500
sVsrc_big
p25
Vhttp://cs631116.vk.me/v631116050/4356a/GhomJJ_1xWg.jpg
p26
sVsrc_small
p27
Vhttp://cs631116.vk.me/v631116050/43568/8ZufXGTZPeE.jpg
p28
sVaid
p29
I-7
sVsrc_xxxbig
p30
Vhttp://cs631116.vk.me/v631116050/4356d/YOV581KuzrQ.jpg
p31
sVowner_id
p32
I-69577071
ssVtype
p33
Vphoto
p34
sa(dp35
Vphoto
p36
(dp37
Vaccess_key
p38
V2bc085a567d6b27438
p39
sVsrc
p40
Vhttp://cs631116.vk.me/v631116050/43573/seOoiE805WU.jpg
p41
sVuser_id
p42
I100
sVsrc_xbig
p43
Vhttp://cs631116.vk.me/v631116050/43575/oXZZ91tph50.jpg
p44
sVtext
p45
g18
sVcreated
p46
I1471590737
sVpid
p47
I430286169
sVheight
p48
I731
sVsrc_xxbig
p49
Vhttp://cs631116.vk.me/v631116050/43576/wO4-8iaHL3E.jpg
p50
sVwidth
p51
I1500
sVsrc_big
p52
Vhttp://cs631116.vk.me/v631116050/43574/txshwTl1byQ.jpg
p53
sVsrc_small
p54
Vhttp://cs631116.vk.me/v631116050/43572/p4HQocFZgpY.jpg
p55
sVaid
p56
I-7
sVsrc_xxxbig
p57
Vhttp://cs631116.vk.me/v631116050/43577/q-ouDpsL87Q.jpg
p58
sVowner_id
p59
I-69577071
ssVtype
p60
Vphoto
p61
sa(dp62
Vphoto
p63
(dp64
Vaccess_key
p65
V62d6eaca242911ceaa
p66
sVsrc
p67
Vhttp://cs631116.vk.me/v631116050/4357d/-Z3RxJHXtZU.jpg
p68
sVuser_id
p69
I100
sVsrc_xbig
p70
Vhttp://cs631116.vk.me/v631116050/4357f/GLlZW6-GGX4.jpg
p71
sVtext
p72
g18
sVcreated
p73
I1471590737
sVpid
p74
I430286173
sVheight
p75
I731
sVsrc_xxbig
p76
Vhttp://cs631116.vk.me/v631116050/43580/LF3NjmOA4yA.jpg
p77
sVwidth
p78
I1500
sVsrc_big
p79
Vhttp://cs631116.vk.me/v631116050/4357e/uUcilt1fIyY.jpg
p80
sVsrc_small
p81
Vhttp://cs631116.vk.me/v631116050/4357c/6hTA3XcItRs.jpg
p82
sVaid
p83
I-7
sVsrc_xxxbig
p84
Vhttp://cs631116.vk.me/v631116050/43581/JtTk5HCFcKg.jpg
p85
sVowner_id
p86
I-69577071
ssVtype
p87
Vphoto
p88
sa(dp89
Vphoto
p90
(dp91
Vaccess_key
p92
V5061803efb534dbbdd
p93
sVsrc
p94
Vhttp://cs631116.vk.me/v631116050/43587/6dMeLYRQ2hs.jpg
p95
sVuser_id
p96
I100
sVsrc_xbig
p97
Vhttp://cs631116.vk.me/v631116050/43589/6pfxalYQA6g.jpg
p98
sVtext
p99
g18
sVcreated
p100
I1471590737
sVpid
p101
I430286176
sVheight
p102
I731
sVsrc_xxbig
p103
Vhttp://cs631116.vk.me/v631116050/4358a/aR4zd0NRscU.jpg
p104
sVwidth
p105
I1500
sVsrc_big
p106
Vhttp://cs631116.vk.me/v631116050/43588/2tRqxyLV0jI.jpg
p107
sVsrc_small
p108
Vhttp://cs631116.vk.me/v631116050/43586/hEo8vt8oG88.jpg
p109
sVaid
p110
I-7
sVsrc_xxxbig
p111
Vhttp://cs631116.vk.me/v631116050/4358b/cUqT-Uv-btI.jpg
p112
sVowner_id
p113
I-69577071
ssVtype
p114
Vphoto
p115
sa(dp116
Vphoto
p117
(dp118
Vaccess_key
p119
Ve77c96966eeac220b2
p120
sVsrc
p121
Vhttp://cs631116.vk.me/v631116050/43591/Gkp4MVRXd4k.jpg
p122
sVuser_id
p123
I100
sVsrc_xbig
p124
Vhttp://cs631116.vk.me/v631116050/43593/rbxcOl-4m2E.jpg
p125
sVtext
p126
g18
sVcreated
p127
I1471590737
sVpid
p128
I430286177
sVheight
p129
I731
sVsrc_xxbig
p130
Vhttp://cs631116.vk.me/v631116050/43594/GS3QIUYNMTo.jpg
p131
sVwidth
p132
I1500
sVsrc_big
p133
Vhttp://cs631116.vk.me/v631116050/43592/TEwm2krXneg.jpg
p134
sVsrc_small
p135
Vhttp://cs631116.vk.me/v631116050/43590/lasaEuAnehw.jpg
p136
sVaid
p137
I-7
sVsrc_xxxbig
p138
Vhttp://cs631116.vk.me/v631116050/43595/bPj15-1-I7M.jpg
p139
sVowner_id
p140
I-69577071
ssVtype
p141
Vphoto
p142
sa(dp143
Vlink
p144
(dp145
Vurl
p146
Vhttp://bfguns.ru/contacts/
p147
sVdescription
p148
V\u0418\u043d\u0442\u0435\u0440\u043d\u0435\u0442-\u043c\u0430\u0433\u0430\u0437\u0438\u043d BFGUNS: \u0412\u0441\u0435 \u0434\u043b\u044f \u0441\u0442\u0440\u0430\u0439\u043a\u0431\u043e\u043b\u0430. \u0414\u043e\u0441\u0442\u0430\u0432\u043a\u0430 \u043f\u043e \u041c\u043e\u0441\u043a\u0432\u0435 \u0438 \u0432\u0441\u0435\u0439 \u0420\u043e\u0441\u0441\u0438\u0438 \u0441\u0442\u0440\u0430\u0439\u043a\u0431\u043e\u043b\u044c\u043d\u043e\u0433\u043e \u0441\u043d\u0430\u0440\u044f\u0436\u0435\u043d\u0438\u044f \u0438 \u043e\u0431\u043e\u0440\u0443\u0434\u043e\u0432\u0430\u043d\u0438\u044f. 8(495) 66 073 66
p149
sVtitle
p150
V\u041a\u043e\u043d\u0442\u0430\u043a\u0442\u044b
p151
ssVtype
p152
Vlink
p153
sasVtext
p154
V\u0412\u043f\u0435\u0440\u0435\u0434\u0438 \u043d\u0430\u043c\u0435\u0447\u0430\u044e\u0442\u0441\u044f \u0432\u044b\u0445\u043e\u0434\u043d\u044b\u0435, \u0430 \u0437\u043d\u0430\u0447\u0438\u0442 \u0441\u0442\u0440\u0430\u0439\u043a\u0431\u043e\u043b! \u0415\u0441\u043b\u0438 \u0432\u0430\u043c \u043d\u0443\u0436\u043d\u044b \u0433\u0440\u0430\u043d\u0430\u0442\u044b, \u0447\u0442\u043e\u0431\u044b \u0432\u0437\u0440\u044b\u0432\u0430\u0442\u044c-\u0443\u0431\u0438\u0432\u0430\u0442\u044c, \u0442\u043e \u0443 \u043d\u0430\u0441 \u043a\u0430\u043a \u0440\u0430\u0437 \u043f\u0440\u0438\u0435\u0445\u0430\u043b\u0430 \u043f\u0440\u043e\u0434\u0443\u043a\u0446\u0438\u044f \u043a\u043e\u043c\u043f\u0430\u043d\u0438\u0438 TAG Innovation. \u0412\u0441\u0451 \u0441\u043d\u043e\u0432\u0430 \u0432 \u043d\u0430\u043b\u0438\u0447\u0438\u0438: <br> <br>\u0412\u044b\u0441\u0442\u0440\u0435\u043b\u044b \u0413\u041f-1 - http://goo.gl/O1QqcD<br> <br>\u0413\u0438\u043b\u044c\u0437\u044b \u043d\u0430 CO - http://goo.gl/xahbNp<br> <br>\u0422\u0430\u043a\u0436\u0435 \u0432 \u043f\u0440\u043e\u0434\u0430\u0436\u0435 \u0440\u0443\u0447\u043d\u044b\u0435 \u0433\u0440\u0430\u043d\u0430\u0442\u044b \u0422\u0410\u0413 \u0441 \u0430\u043a\u0442\u0438\u0432\u043d\u043e\u0439 \u0447\u0435\u043a\u043e\u0439: <br> <br>\u0421\u0442\u0438\u043b\u044c\u043d\u044b\u0435 M67 - http://goo.gl/Xte4Qf <br> <br>\u0417\u043d\u0430\u043c\u0435\u043d\u0438\u0442\u044b\u0435 EVO3 - http://goo.gl/umc73B <br> <br>\u0428\u0443\u043c\u043e\u0432\u044b\u0435 FBG-6 - http://goo.gl/IwraRD <br> <br>\u041f\u0440\u0438\u0445\u043e\u0434\u0438\u0442\u0435 - bfguns.ru/contacts
p155
sVcomments
p156
(dp157
Vcount
p158
I0
ssVto_id
p159
I-69577071
sVpost_type
p160
Vpost
p161
sVattachment
p162
(dp163
Vphoto
p164
(dp165
Vaccess_key
p166
Vf07c642d38085f6b13
p167
sVsrc
p168
Vhttp://cs631116.vk.me/v631116050/43569/8EE2myJcPDk.jpg
p169
sVuser_id
p170
I100
sVsrc_xbig
p171
Vhttp://cs631116.vk.me/v631116050/4356b/dGvI9h__st0.jpg
p172
sVtext
p173
g18
sVcreated
p174
I1471590737
sVpid
p175
I430286168
sVheight
p176
I731
sVsrc_xxbig
p177
Vhttp://cs631116.vk.me/v631116050/4356c/P-jqioeMtlQ.jpg
p178
sVwidth
p179
I1500
sVsrc_big
p180
Vhttp://cs631116.vk.me/v631116050/4356a/GhomJJ_1xWg.jpg
p181
sVsrc_small
p182
Vhttp://cs631116.vk.me/v631116050/43568/8ZufXGTZPeE.jpg
p183
sVaid
p184
I-7
sVsrc_xxxbig
p185
Vhttp://cs631116.vk.me/v631116050/4356d/YOV581KuzrQ.jpg
p186
sVowner_id
p187
I-69577071
ssVtype
p188
Vphoto
p189
ssVdate
p190
I1471597375
sVreposts
p191
(dp192
Vcount
p193
I0
ssVid
p194
I4033
sVfrom_id
p195
I-69577071
ssI4034
(dp196
Vlikes
p197
(dp198
Vcount
p199
I11
ssVattachments
p200
(lp201
(dp202
Vphoto
p203
(dp204
Vaccess_key
p205
V7d4c1264e5bb6f524e
p206
sVsrc
p207
Vhttp://cs631116.vk.me/v631116050/43551/_XuwkeZ1_5Y.jpg
p208
sVuser_id
p209
I100
sVsrc_xbig
p210
Vhttp://cs631116.vk.me/v631116050/43553/nSZeP3CXzjE.jpg
p211
sVtext
p212
g18
sVcreated
p213
I1471590181
sVpid
p214
I430285127
sVheight
p215
I531
sVwidth
p216
I800
sVsrc_big
p217
Vhttp://cs631116.vk.me/v631116050/43552/Jxs10mHMZCk.jpg
p218
sVsrc_small
p219
Vhttp://cs631116.vk.me/v631116050/43550/wvytokI7ef4.jpg
p220
sVaid
p221
I-7
sVowner_id
p222
I-69577071
ssVtype
p223
Vphoto
p224
sa(dp225
Vphoto
p226
(dp227
Vaccess_key
p228
Vb143d863a5967021e6
p229
sVsrc
p230
Vhttp://cs631116.vk.me/v631116050/43559/2tKWjrRYq9I.jpg
p231
sVuser_id
p232
I100
sVsrc_xbig
p233
Vhttp://cs631116.vk.me/v631116050/4355b/kwLfeScRWyg.jpg
p234
sVtext
p235
g18
sVcreated
p236
I1471590181
sVpid
p237
I430285128
sVheight
p238
I531
sVwidth
p239
I800
sVsrc_big
p240
Vhttp://cs631116.vk.me/v631116050/4355a/nwcj6oAioEc.jpg
p241
sVsrc_small
p242
Vhttp://cs631116.vk.me/v631116050/43558/u_txh2ViQ4w.jpg
p243
sVaid
p244
I-7
sVowner_id
p245
I-69577071
ssVtype
p246
Vphoto
p247
sa(dp248
Vphoto
p249
(dp250
Vaccess_key
p251
V9842b66fb5055347c7
p252
sVsrc
p253
Vhttp://cs631116.vk.me/v631116050/43561/hvtfRKwnMHU.jpg
p254
sVuser_id
p255
I100
sVsrc_xbig
p256
Vhttp://cs631116.vk.me/v631116050/43563/ZphgqiBHpC4.jpg
p257
sVtext
p258
g18
sVcreated
p259
I1471590181
sVpid
p260
I430285129
sVheight
p261
I531
sVwidth
p262
I800
sVsrc_big
p263
Vhttp://cs631116.vk.me/v631116050/43562/VZKofNv3HsY.jpg
p264
sVsrc_small
p265
Vhttp://cs631116.vk.me/v631116050/43560/iiKE0va2lSw.jpg
p266
sVaid
p267
I-7
sVowner_id
p268
I-69577071
ssVtype
p269
Vphoto
p270
sa(dp271
Vlink
p272
(dp273
Vurl
p274
Vhttp://bfguns.ru/contacts/
p275
sVdescription
p276
V\u0418\u043d\u0442\u0435\u0440\u043d\u0435\u0442-\u043c\u0430\u0433\u0430\u0437\u0438\u043d BFGUNS: \u0412\u0441\u0435 \u0434\u043b\u044f \u0441\u0442\u0440\u0430\u0439\u043a\u0431\u043e\u043b\u0430. \u0414\u043e\u0441\u0442\u0430\u0432\u043a\u0430 \u043f\u043e \u041c\u043e\u0441\u043a\u0432\u0435 \u0438 \u0432\u0441\u0435\u0439 \u0420\u043e\u0441\u0441\u0438\u0438 \u0441\u0442\u0440\u0430\u0439\u043a\u0431\u043e\u043b\u044c\u043d\u043e\u0433\u043e \u0441\u043d\u0430\u0440\u044f\u0436\u0435\u043d\u0438\u044f \u0438 \u043e\u0431\u043e\u0440\u0443\u0434\u043e\u0432\u0430\u043d\u0438\u044f. 8(495) 66 073 66
p277
sVtitle
p278
V\u041a\u043e\u043d\u0442\u0430\u043a\u0442\u044b
p279
ssVtype
p280
Vlink
p281
sasVtext
p282
V\u041d\u0443 \u0447\u0442\u043e, \u043f\u0430\u0440\u043d\u0438, \u043f\u044f\u0442\u043d\u0438\u0446\u0430 \u043a\u043b\u043e\u043d\u0438\u0442\u0441\u044f \u043a \u0437\u0430\u043a\u0430\u0442\u0443, \u043f\u043e\u0440\u0430 \u0438\u0434\u0442\u0438 \u0432 \u0431\u0430\u0440. \u0410 \u0447\u0442\u043e\u0431\u044b \u043f\u043e \u0434\u043e\u0440\u043e\u0433\u0435 \u0438\u0437 \u0431\u0430\u0440\u0430 \u043f\u043e \u043d\u0435\u043e\u0441\u0432\u0435\u0449\u0435\u043d\u043d\u044b\u043c \u0443\u043b\u0438\u0446\u0430\u043c \u0432\u0430\u043c \u043d\u0435 \u043f\u043e\u043f\u0430\u0441\u0442\u044c \u0432 \u0431\u0435\u0434\u0443, \u0432\u0430\u043c \u043c\u043e\u0436\u0435\u0442 \u043f\u0440\u0438\u0433\u043e\u0434\u0438\u0442\u044c\u0441\u044f \u0444\u043e\u043d\u0430\u0440\u0438\u043a. \u041d\u0443 \u043f\u0440\u0430\u0432\u0434\u0430, \u043d\u0435 \u0442\u043e\u043b\u044c\u043a\u043e \u0436\u0435 \u0434\u043b\u044f \u0441\u0442\u0440\u0430\u0439\u043a\u0431\u043e\u043b\u0430 \u043d\u0430\u0448 \u0430\u0441\u0441\u043e\u0440\u0442\u0438\u043c\u0435\u043d\u0442 \u043f\u043e\u0434\u0445\u043e\u0434\u0438\u0442 :)<br><br>\u0421\u043c\u043e\u0442\u0440\u0438\u0442\u0435 \u043a\u0430\u043a\u0430\u044f \u043f\u0440\u0435\u043b\u0435\u0441\u0442\u044c - \u0440\u0435\u043f\u043b\u0438\u043a\u0430 Surefire HL-1. \u042d\u0442\u043e\u0442 \u0444\u043e\u043d\u0430\u0440\u044c \u0431\u044b\u043b \u0440\u0430\u0437\u0440\u0430\u0431\u043e\u0442\u0430\u043d \u0441\u043f\u0435\u0446\u0438\u0430\u043b\u044c\u043d\u043e \u0434\u043b\u044f \u043a\u0440\u0435\u043f\u043b\u0435\u043d\u0438\u044f \u043d\u0430 \u0448\u043b\u0435\u043c, \u0447\u0442\u043e\u0431\u044b \u0431\u043e\u0435\u0446 \u043c\u043e\u0433 \u043f\u043e\u0434\u0441\u0432\u0435\u0447\u0438\u0432\u0430\u0442\u044c \u0441\u0435\u0431\u0435 \u043f\u0440\u0438 \u0432\u044b\u043f\u043e\u043b\u043d\u0435\u043d\u0438\u0438 \u0440\u0430\u0431\u043e\u0442 \u043d\u0435 \u0437\u0430\u043d\u0438\u043c\u0430\u044f \u0440\u0443\u043a\u0438 \u0438\u043b\u0438 \u043d\u0435 \u043f\u0438\u0445\u0430\u044f \u0444\u043e\u043d\u0430\u0440\u0438\u043a \u0432 \u0440\u043e\u0442. \u0424\u043e\u043d\u0430\u0440\u044c \u0438\u043c\u0435\u0435\u0442 \u0434\u0438\u043e\u0434\u044b \u0440\u0430\u0437\u043b\u0438\u0447\u043d\u043e\u0433\u043e \u0446\u0432\u0435\u0442\u0430, \u043a\u0430\u043a \u0431\u0435\u043b\u044b\u0435, \u0442\u0430\u043a \u0438 \u043a\u0440\u0430\u0441\u043d\u044b\u0435/\u0441\u0438\u043d\u0438\u0435, \u0447\u0442\u043e\u0431\u044b \u043d\u0435 \u0432\u044b\u0434\u0430\u0432\u0430\u0442\u044c \u043f\u043e\u0437\u0438\u0446\u0438\u044e \u0438\u0437\u043b\u0438\u0448\u043d\u0438 \u044f\u0440\u043a\u0438\u043c \u0441\u0432\u0435\u0442\u043e\u043c, \u0430 \u0442\u0430\u043a\u0436\u0435 \u0418\u041a-\u043c\u0430\u044f\u043a. \u0412 \u043f\u043e\u0441\u043b\u0435\u0434\u0441\u0442\u0432\u0438\u0438 \u043d\u0430 \u0440\u044b\u043d\u043a\u0435 \u043f\u043e\u044f\u0432\u0438\u043b\u0438\u0441\u044c \u0430\u0434\u0430\u043f\u0442\u0435\u0440\u044b \u0434\u043b\u044f \u043a\u0440\u0435\u043f\u043b\u0435\u043d\u0438\u044f \u0444\u043e\u043d\u0430\u0440\u044f \u043a\u0430\u043a \u043d\u0430 MOLLE, \u0442\u0430\u043a \u0438 \u043d\u0430 RIS.<br><br>\u0420\u0435\u043f\u043b\u0438\u043a\u0443 \u0434\u0435\u043b\u0430\u0435\u0442 \u043a\u043e\u043c\u043f\u0430\u043d\u0438\u044f Night Evolution - \u043b\u0438\u0434\u0435\u0440 \u0432 \u043e\u0431\u043b\u0430\u0441\u0442\u0438 \u0440\u0435\u043f\u043b\u0438\u043a \u0444\u043e\u043d\u0430\u0440\u0435\u0439. \u0422\u0430\u043a \u0447\u0442\u043e \u0437\u0430 \u043a\u0430\u0447\u0435\u0441\u0442\u0432\u043e \u0438 \u0440\u0430\u0431\u043e\u0442\u043e\u0441\u043f\u043e\u0441\u043e\u0431\u043d\u043e\u0441\u0442\u044c \u043c\u043e\u0436\u043d\u043e \u043d\u0435 \u043f\u0435\u0440\u0435\u0436\u0438\u0432\u0430\u0442\u044c. \u0420\u0435\u043f\u043b\u0438\u043a\u0430 \u043d\u0435 \u043b\u0438\u0446\u0435\u043d\u0437\u0438\u043e\u043d\u043d\u0430\u044f, \u0442\u0430\u043a \u0447\u0442\u043e \u043c\u0430\u0440\u043a\u0438\u0440\u043e\u0432\u043a\u0438 \u0442\u0443\u0442 \u043d\u0435 \u043f\u0440\u0430\u0432\u0438\u043b\u044c\u043d\u044b\u0435 \u0438 \u0435\u0441\u043b\u0438 \u0432\u044b \u0430\u0434\u0435\u043f\u0442 \u0440\u0435\u043a\u043e\u043d\u0441\u0442\u0440\u0443\u043a\u0446\u0438\u0438, \u0442\u043e \u0432\u0430\u043c \u043d\u0435 \u043e\u0447\u0435\u043d\u044c \u043f\u043e\u0434\u043e\u0439\u0434\u0435\u0442.<br><br>\u041f\u0435\u0440\u0435\u0434 \u043f\u043e\u0445\u043e\u0434\u043e\u043c \u0432 \u0431\u0430\u0440 \u043e\u0434\u0435\u0432\u0430\u0439\u0442\u0435 \u0448\u043b\u0435\u043c \u0438 \u0437\u0430\u043a\u0430\u0437\u044b\u0432\u0430\u0439\u0442\u0435 - http://goo.gl/wA3jJu<br><br>\u041d\u0443 \u0438 \u0437\u0430\u0445\u043e\u0434\u0438\u0442\u0435 \u043a \u043d\u0430\u043c - bfguns.ru/contacts/<br><br>\u0412\u0421\u0415\u041c \u0425\u041e\u0420\u041e\u0428\u0415\u0419 \u041f\u042f\u0422\u041d\u0418\u0426\u042b \u0418 \u0423\u0414\u0410\u0427\u041d\u042b\u0425 \u0412\u042b\u0425\u041e\u0414\u041d\u042b\u0425!
p283
sVcomments
p284
(dp285
Vcount
p286
I2
ssVto_id
p287
I-69577071
sVpost_type
p288
Vpost
p289
sVattachment
p290
(dp291
Vphoto
p292
(dp293
Vaccess_key
p294
V7d4c1264e5bb6f524e
p295
sVsrc
p296
Vhttp://cs631116.vk.me/v631116050/43551/_XuwkeZ1_5Y.jpg
p297
sVuser_id
p298
I100
sVsrc_xbig
p299
Vhttp://cs631116.vk.me/v631116050/43553/nSZeP3CXzjE.jpg
p300
sVtext
p301
g18
sVcreated
p302
I1471590181
sVpid
p303
I430285127
sVheight
p304
I531
sVwidth
p305
I800
sVsrc_big
p306
Vhttp://cs631116.vk.me/v631116050/43552/Jxs10mHMZCk.jpg
p307
sVsrc_small
p308
Vhttp://cs631116.vk.me/v631116050/43550/wvytokI7ef4.jpg
p309
sVaid
p310
I-7
sVowner_id
p311
I-69577071
ssVtype
p312
Vphoto
p313
ssVdate
p314
I1471611725
sVreposts
p315
(dp316
Vcount
p317
I1
ssVid
p318
I4034
sVfrom_id
p319
I-69577071
ssI4003
(dp320
Vlikes
p321
(dp322
Vcount
p323
I9
ssVattachments
p324
(lp325
(dp326
Vphoto
p327
(dp328
Vaccess_key
p329
V0f17d173c0ecc41c81
p330
sVsrc
p331
Vhttp://cs631116.vk.me/v631116050/42f6d/43_t4I5YSvg.jpg
p332
sVuser_id
p333
I100
sVsrc_xbig
p334
Vhttp://cs631116.vk.me/v631116050/42f6f/G8MbWh3j46g.jpg
p335
sVtext
p336
g18
sVcreated
p337
I1471502763
sVpid
p338
I430145598
sVheight
p339
I533
sVwidth
p340
I800
sVsrc_big
p341
Vhttp://cs631116.vk.me/v631116050/42f6e/PIaIpilfBRM.jpg
p342
sVsrc_small
p343
Vhttp://cs631116.vk.me/v631116050/42f6c/Dc1a7yDxO1M.jpg
p344
sVaid
p345
I-7
sVowner_id
p346
I-69577071
ssVtype
p347
Vphoto
p348
sa(dp349
Vphoto
p350
(dp351
Vaccess_key
p352
V8f07d350c9795feea4
p353
sVsrc
p354
Vhttp://cs631116.vk.me/v631116050/42f75/CiCdd5FvwpA.jpg
p355
sVuser_id
p356
I100
sVsrc_xbig
p357
Vhttp://cs631116.vk.me/v631116050/42f77/nT7QVsJZuUU.jpg
p358
sVtext
p359
g18
sVcreated
p360
I1471502763
sVpid
p361
I430145599
sVheight
p362
I533
sVwidth
p363
I800
sVsrc_big
p364
Vhttp://cs631116.vk.me/v631116050/42f76/SgAxRCp7u-s.jpg
p365
sVsrc_small
p366
Vhttp://cs631116.vk.me/v631116050/42f74/df7HRjmSmYM.jpg
p367
sVaid
p368
I-7
sVowner_id
p369
I-69577071
ssVtype
p370
Vphoto
p371
sa(dp372
Vphoto
p373
(dp374
Vaccess_key
p375
V76f1f9d87b1d2680ba
p376
sVsrc
p377
Vhttp://cs631116.vk.me/v631116050/42f7d/OORkFmVv-uc.jpg
p378
sVuser_id
p379
I100
sVsrc_xbig
p380
Vhttp://cs631116.vk.me/v631116050/42f7f/l4yEdYduRl8.jpg
p381
sVtext
p382
g18
sVcreated
p383
I1471502763
sVpid
p384
I430145600
sVheight
p385
I531
sVwidth
p386
I800
sVsrc_big
p387
Vhttp://cs631116.vk.me/v631116050/42f7e/ATW8UAVBOnU.jpg
p388
sVsrc_small
p389
Vhttp://cs631116.vk.me/v631116050/42f7c/sk_lyM89ITI.jpg
p390
sVaid
p391
I-7
sVowner_id
p392
I-69577071
ssVtype
p393
Vphoto
p394
sa(dp395
Vphoto
p396
(dp397
Vaccess_key
p398
Vcdb79d29a11cee1a58
p399
sVsrc
p400
Vhttp://cs631116.vk.me/v631116050/42f85/iNsjxB1yEBU.jpg
p401
sVuser_id
p402
I100
sVsrc_xbig
p403
Vhttp://cs631116.vk.me/v631116050/42f87/7PVDvI5l5sc.jpg
p404
sVtext
p405
g18
sVcreated
p406
I1471502763
sVpid
p407
I430145601
sVheight
p408
I531
sVwidth
p409
I800
sVsrc_big
p410
Vhttp://cs631116.vk.me/v631116050/42f86/6ai-TEJu7K4.jpg
p411
sVsrc_small
p412
Vhttp://cs631116.vk.me/v631116050/42f84/3FWDVN5Nkmk.jpg
p413
sVaid
p414
I-7
sVowner_id
p415
I-69577071
ssVtype
p416
Vphoto
p417
sa(dp418
Vphoto
p419
(dp420
Vaccess_key
p421
Vda175e32efe3921a37
p422
sVsrc
p423
Vhttp://cs631116.vk.me/v631116050/42f8d/onspEo5dnC0.jpg
p424
sVuser_id
p425
I100
sVsrc_xbig
p426
Vhttp://cs631116.vk.me/v631116050/42f8f/GpC4lBE-UmY.jpg
p427
sVtext
p428
g18
sVcreated
p429
I1471502763
sVpid
p430
I430145602
sVheight
p431
I533
sVwidth
p432
I800
sVsrc_big
p433
Vhttp://cs631116.vk.me/v631116050/42f8e/EyRQGERejzA.jpg
p434
sVsrc_small
p435
Vhttp://cs631116.vk.me/v631116050/42f8c/lwejKvTzqPM.jpg
p436
sVaid
p437
I-7
sVowner_id
p438
I-69577071
ssVtype
p439
Vphoto
p440
sa(dp441
Vphoto
p442
(dp443
Vaccess_key
p444
V4f01de0d2c71c2e2e5
p445
sVsrc
p446
Vhttp://cs631116.vk.me/v631116050/42f95/Q9bwWp-Vj-o.jpg
p447
sVuser_id
p448
I100
sVsrc_xbig
p449
Vhttp://cs631116.vk.me/v631116050/42f97/TEkyasq_SqM.jpg
p450
sVtext
p451
g18
sVcreated
p452
I1471502763
sVpid
p453
I430145603
sVheight
p454
I531
sVwidth
p455
I800
sVsrc_big
p456
Vhttp://cs631116.vk.me/v631116050/42f96/ouZyYr9WfKE.jpg
p457
sVsrc_small
p458
Vhttp://cs631116.vk.me/v631116050/42f94/nBQb0FumW7s.jpg
p459
sVaid
p460
I-7
sVowner_id
p461
I-69577071
ssVtype
p462
Vphoto
p463
sa(dp464
Vlink
p465
(dp466
Vurl
p467
Vhttp://bfguns.ru
p468
sVdescription
p469
g18
sVtitle
p470
VBFG Shop
p471
ssVtype
p472
Vlink
p473
sasVtext
p474
V\u0412 \u044d\u0442\u043e\u0442 \u0434\u0435\u043d\u044c \u0432 2009 \u0433\u043e\u0434\u0443 \u043d\u0430\u0448\u0438 \u043c\u043e\u0440\u043f\u0435\u0445\u0438 \u043e\u0442\u0431\u0438\u043b\u0438 \u0432 \u0410\u0442\u043b\u0430\u043d\u0442\u0438\u043a\u0435 \u0441\u0443\u0445\u043e\u0433\u0440\u0443\u0437 "\u0410\u0440\u043a\u0442\u0438\u043a \u0421\u0438" \u0443 \u043f\u0438\u0440\u0430\u0442\u043e\u0432. \u0418\u0441\u0442\u043e\u0440\u0438\u044f \u043c\u0443\u0442\u043d\u0430\u044f, \u0447\u0442\u043e \u0442\u0430\u043c \u0431\u044b\u043b\u043e \u0434\u043e \u043a\u043e\u043d\u0446\u0430 \u043d\u0438\u043a\u0442\u043e \u043d\u0435 \u0437\u043d\u0430\u0435\u0442, \u043d\u043e \u0432\u043e\u0442 \u0442\u043e, \u0447\u0442\u043e \u043d\u0430\u0448\u0438 \u043c\u043e\u0440\u043f\u0435\u0445\u0438 \u0431\u044b\u043b\u0438 \u0441 \u043a\u0430\u043b\u0430\u0448\u0430\u043c\u0438 - \u044d\u0442\u043e \u0442\u043e\u0447\u043d\u043e.<br><br>\u0423 \u043d\u0430\u0441 \u0432 \u043c\u0430\u0433\u0430\u0437\u0438\u043d\u0435 \u043d\u0435\u043f\u043b\u043e\u0445\u043e\u0439 \u0432\u044b\u0431\u043e\u0440 \u043e\u0442\u0435\u0447\u0435\u0441\u0442\u0432\u0435\u043d\u043d\u043e\u0433\u043e \u043e\u0440\u0443\u0436\u0438\u044f \u043e\u0442 \u0440\u0430\u0437\u043b\u0438\u0447\u043d\u044b\u0445 \u043f\u0440\u043e\u0438\u0437\u0432\u043e\u0434\u0438\u0442\u0435\u043b\u0435\u0439 \u0438 \u0441\u0440\u0435\u0434\u0438 \u043f\u0440\u0435\u0434\u0441\u0442\u0430\u0432\u043b\u0435\u043d\u043d\u043e\u0433\u043e \u0435\u0441\u0442\u044c \u0438 \u0433\u0430\u0437\u043e\u0432\u044b\u0435 \u0440\u0435\u043f\u043b\u0438\u043a\u0438, \u0438 \u044d\u043b\u0435\u043a\u0442\u0440\u043e-\u043f\u043d\u0435\u0432\u043c\u0430\u0442\u0438\u0447\u0435\u0441\u043a\u0438\u0435. \u0425\u043e\u0447\u0435\u0442\u0441\u044f \u043e\u0442\u043c\u0435\u0442\u0438\u0442\u044c, \u0447\u0442\u043e \u0443 \u043d\u0430\u0441 \u0432 \u043d\u0430\u043b\u0438\u0447\u0438\u0438 \u0435\u0441\u0442\u044c \u043e\u0442\u043d\u043e\u0441\u0438\u0442\u0435\u043b\u044c\u043d\u043e \u0431\u044e\u0434\u0436\u0435\u0442\u043d\u044b\u0439 \u0410\u041a-74\u041c \u043e\u0442 \u043a\u043e\u043c\u043f\u0430\u043d\u0438\u0438 Meister Arms. <br><br>\u041f\u0440\u043e\u0438\u0437\u0432\u043e\u0434\u0438\u0442\u0441\u044f \u043f\u0440\u0438\u0432\u043e\u0434 \u043a\u043e\u043c\u043f\u0430\u043d\u0438\u0435\u0439 E&amp;L. \u0412\u043d\u0435\u0448\u043d\u0435 \u0432\u0441\u0451 \u0442\u043e\u0436\u0435 \u0441\u0430\u043c\u043e\u0435 - \u0432\u044b\u0441\u043e\u0447\u0430\u0439\u0448\u0435\u0435 \u0432\u043d\u0438\u043c\u0430\u043d\u0438\u0435 \u043a \u0434\u0435\u0442\u0430\u043b\u044f\u043c, \u043a\u0430\u0447\u0435\u0441\u0442\u0432\u0435\u043d\u043d\u044b\u0435 \u043c\u0430\u0442\u0435\u0440\u0438\u0430\u043b\u044b \u0438 \u043f\u0440\u0430\u0432\u0438\u043b\u044c\u043d\u044b\u0435 \u043c\u0430\u0440\u043a\u0438\u0440\u043e\u0432\u043a\u0438. \u041e\u0441\u043d\u043e\u0432\u043d\u044b\u0435 \u043e\u0442\u043b\u0438\u0447\u0438\u044f \u0432\u043d\u0443\u0442\u0440\u0438:<br> - \u0413\u0438\u0440\u0431\u043e\u043a\u0441 \u043b\u0438\u0448\u0435\u043d \u0431\u044b\u0441\u0442\u0440\u043e\u0439 \u0437\u0430\u043c\u0435\u043d\u044b \u043f\u0440\u0443\u0436\u0438\u043d\u044b<br> - \u041f\u0440\u043e\u0432\u043e\u0434\u043a\u0430 \u0441\u0434\u0435\u043b\u0430\u043d\u0430 \u0447\u0443\u0442\u044c \u0441\u043b\u0430\u0431\u0435\u0435, \u0445\u043e\u0442\u044f \u043f\u0440\u0435\u0434\u043e\u0445\u0440\u0430\u043d\u0438\u0442\u0435\u043b\u044c \u0432\u0441\u0435 \u0440\u0430\u0432\u043d\u043e \u0441\u0442\u043e\u0438\u0442 \u0448\u0442\u0430\u0442\u043d\u043e. <br> - \u041d\u0435\u043c\u043d\u043e\u0433\u043e \u0434\u0440\u0443\u0433\u0430\u044f \u043a\u0430\u043c\u0435\u0440\u0430 \u0445\u043e\u043f-\u0430\u043f\u0430.<br> - \u0411\u043e\u043b\u0435\u0435 \u043f\u0440\u043e\u0441\u0442\u044b\u0435 \u0448\u0435\u0441\u0442\u0435\u0440\u043d\u0438 \u0438 \u0446\u0438\u043b\u0438\u043d\u0434\u0440.<br><br>\u041d\u0435 \u0441\u043c\u043e\u0442\u0440\u044f \u043d\u0430 \u0442\u043e, \u0447\u0442\u043e \u043f\u043e\u0442\u0440\u043e\u0445\u0430 \u044d\u0442\u043e\u0433\u043e \u0410\u041a \u043d\u0435 \u043d\u0430\u0441\u0442\u043e\u043b\u044c\u043a\u043e \u043a\u0440\u0443\u0442\u044b, \u043a\u0430\u043a \u0432 E&amp;L, \u043e\u043d\u0438 \u0432\u0441\u0435 \u0440\u0430\u0432\u043d\u043e \u0434\u043e\u0441\u0442\u0430\u0442\u043e\u0447\u043d\u043e \u043a\u0430\u0447\u0435\u0441\u0442\u0432\u0435\u043d\u043d\u044b\u0435. \u0422.\u0435. \u0435\u0441\u043b\u0438 \u0441\u0440\u0430\u0432\u043d\u0438\u0432\u0430\u0442\u044c \u043d\u0430 \u043c\u0430\u0448\u0438\u043d\u0430\u0445 \u0432\u044b \u043f\u043e\u043a\u0443\u043f\u0430\u0435\u0442\u0435 \u043d\u0435 BMW, \u0430 Volkswagen. \u041d\u043e \u0432\u0441\u0435 \u0440\u0430\u0432\u043d\u043e \u044d\u0442\u043e \u043d\u0435 \u0416\u0438\u0433\u0443\u043b\u0438, \u043a\u0430\u043a \u0432 \u0441\u043b\u0443\u0447\u0430\u0435 \u0441 \u043a\u0430\u043a\u0438\u043c \u043d\u0438\u0431\u0443\u0434\u044c \u043a\u0438\u0442\u0430\u0439\u0441\u043a\u0438\u043c \u043c\u0440\u0430\u043a\u043e\u043c \u0442\u0438\u043f\u0430 Cyma.<br><br>\u0422\u0430\u043a\u0438\u043c \u043e\u0431\u0440\u0430\u0437\u043e\u043c, \u0435\u0441\u043b\u0438 \u0432\u044b \u043d\u0435 \u043c\u0435\u043d\u044f\u0435\u0442\u0435 \u043f\u0440\u0443\u0436\u0438\u043d\u0443 5 \u0440\u0430\u0437 \u0437\u0430 \u0438\u0433\u0440\u0443 \u0438 \u043d\u0435 \u043f\u044b\u0442\u0430\u0435\u0442\u0435\u0441\u044c \u043e\u0442\u0441\u0442\u0440\u0435\u043b\u044f\u0442\u044c \u043a\u043e\u0440\u043e\u0431 \u043d\u0430 \u043f\u044f\u0442\u044c \u0442\u044b\u0441\u044f\u0447 \u0448\u0430\u0440\u043e\u0432 \u043e\u0434\u043d\u043e\u0439 \u043e\u0447\u0435\u0440\u0435\u0434\u044c\u044e \u0441 12\u0412 \u0430\u043a\u043a\u0443\u043c\u0443\u043b\u044f\u0442\u043e\u0440\u0430 - \u0442\u043e \u0431\u0435\u0440\u0438\u0442\u0435 \u0441\u0435\u0431\u0435 Meister Arms \u0438 \u043d\u0435 \u043f\u0430\u0440\u044c\u0442\u0435\u0441\u044c. <br><br>\u0412\u043e\u0442 \u043e\u043d \u0443 \u043d\u0430\u0441 \u043d\u0430 \u0441\u0430\u0439\u0442\u0435 - http://goo.gl/80rGP2<br><br>\u0417\u0430\u0445\u043e\u0434\u0438\u0442\u0435, \u0443 \u0432\u043e\u043e\u0431\u0449\u0435 \u0435\u0441\u0442\u044c \u0440\u0430\u0437\u043d\u044b\u0435 \u0410\u041a \u0438 \u0441\u043e\u043f\u0443\u0442\u0441\u0442\u0432\u0443\u044e\u0449\u0438\u0435 \u0430\u043a\u0441\u0435\u0441\u0441\u0443\u0430\u0440\u044b - bfguns.ru/contacts/
p475
sVcomments
p476
(dp477
Vcount
p478
I5
ssVto_id
p479
I-69577071
sVpost_type
p480
Vpost
p481
sVattachment
p482
(dp483
Vphoto
p484
(dp485
Vaccess_key
p486
V0f17d173c0ecc41c81
p487
sVsrc
p488
Vhttp://cs631116.vk.me/v631116050/42f6d/43_t4I5YSvg.jpg
p489
sVuser_id
p490
I100
sVsrc_xbig
p491
Vhttp://cs631116.vk.me/v631116050/42f6f/G8MbWh3j46g.jpg
p492
sVtext
p493
g18
sVcreated
p494
I1471502763
sVpid
p495
I430145598
sVheight
p496
I533
sVwidth
p497
I800
sVsrc_big
p498
Vhttp://cs631116.vk.me/v631116050/42f6e/PIaIpilfBRM.jpg
p499
sVsrc_small
p500
Vhttp://cs631116.vk.me/v631116050/42f6c/Dc1a7yDxO1M.jpg
p501
sVaid
p502
I-7
sVowner_id
p503
I-69577071
ssVtype
p504
Vphoto
p505
ssVdate
p506
I1471510966
sVreposts
p507
(dp508
Vcount
p509
I0
ssVid
p510
I4003
sVfrom_id
p511
I-69577071
ssI4009
(dp512
Vlikes
p513
(dp514
Vcount
p515
I7
ssVattachments
p516
(lp517
(dp518
Vphoto
p519
(dp520
Vaccess_key
p521
Ve62453789593df91dc
p522
sVsrc
p523
Vhttp://cs631116.vk.me/v631116050/42fa0/l0MjEkTsqE8.jpg
p524
sVuser_id
p525
I100
sVsrc_xbig
p526
Vhttp://cs631116.vk.me/v631116050/42fa2/ZM_jzjTL78I.jpg
p527
sVtext
p528
g18
sVcreated
p529
I1471504634
sVpid
p530
I430148261
sVheight
p531
I933
sVsrc_xxbig
p532
Vhttp://cs631116.vk.me/v631116050/42fa3/LYnOQsn0qVo.jpg
p533
sVwidth
p534
I700
sVsrc_big
p535
Vhttp://cs631116.vk.me/v631116050/42fa1/SLrKw1owgVY.jpg
p536
sVsrc_small
p537
Vhttp://cs631116.vk.me/v631116050/42f9f/f4DB7PRLs5c.jpg
p538
sVaid
p539
I-7
sVowner_id
p540
I-69577071
ssVtype
p541
Vphoto
p542
sa(dp543
Vphoto
p544
(dp545
Vaccess_key
p546
V9169ec4f8cb8283b58
p547
sVsrc
p548
Vhttp://cs631116.vk.me/v631116050/42fa9/VnxvWTa1Ayk.jpg
p549
sVuser_id
p550
I100
sVsrc_xbig
p551
Vhttp://cs631116.vk.me/v631116050/42fab/iWS245qtZSc.jpg
p552
sVtext
p553
g18
sVcreated
p554
I1471504634
sVpid
p555
I430148262
sVheight
p556
I531
sVwidth
p557
I800
sVsrc_big
p558
Vhttp://cs631116.vk.me/v631116050/42faa/6bwfkTU1hw4.jpg
p559
sVsrc_small
p560
Vhttp://cs631116.vk.me/v631116050/42fa8/f_oUZFKPExo.jpg
p561
sVaid
p562
I-7
sVowner_id
p563
I-69577071
ssVtype
p564
Vphoto
p565
sa(dp566
Vphoto
p567
(dp568
Vaccess_key
p569
V436d9eaa6ecaefffdf
p570
sVsrc
p571
Vhttp://cs631116.vk.me/v631116050/42fb1/rYT96UnOLr8.jpg
p572
sVuser_id
p573
I100
sVsrc_xbig
p574
Vhttp://cs631116.vk.me/v631116050/42fb3/DtyoWO3CYWA.jpg
p575
sVtext
p576
g18
sVcreated
p577
I1471504634
sVpid
p578
I430148263
sVheight
p579
I531
sVwidth
p580
I800
sVsrc_big
p581
Vhttp://cs631116.vk.me/v631116050/42fb2/UPW-FzvbByA.jpg
p582
sVsrc_small
p583
Vhttp://cs631116.vk.me/v631116050/42fb0/mn2bbZZm_xE.jpg
p584
sVaid
p585
I-7
sVowner_id
p586
I-69577071
ssVtype
p587
Vphoto
p588
sa(dp589
Vphoto
p590
(dp591
Vaccess_key
p592
V2494e70f2891b497c4
p593
sVsrc
p594
Vhttp://cs631116.vk.me/v631116050/42fb9/TLc86UoJiww.jpg
p595
sVuser_id
p596
I100
sVsrc_xbig
p597
Vhttp://cs631116.vk.me/v631116050/42fbb/07hV9ZVF5Jo.jpg
p598
sVtext
p599
g18
sVcreated
p600
I1471504634
sVpid
p601
I430148264
sVheight
p602
I533
sVwidth
p603
I800
sVsrc_big
p604
Vhttp://cs631116.vk.me/v631116050/42fba/VSiwHoxo-c0.jpg
p605
sVsrc_small
p606
Vhttp://cs631116.vk.me/v631116050/42fb8/kaDCgGjiDUY.jpg
p607
sVaid
p608
I-7
sVowner_id
p609
I-69577071
ssVtype
p610
Vphoto
p611
sa(dp612
Vphoto
p613
(dp614
Vaccess_key
p615
V581484d8f836390302
p616
sVsrc
p617
Vhttp://cs631116.vk.me/v631116050/42fc1/6rL0A0jswV4.jpg
p618
sVuser_id
p619
I100
sVsrc_xbig
p620
Vhttp://cs631116.vk.me/v631116050/42fc3/QTPCAPTS1PQ.jpg
p621
sVtext
p622
g18
sVcreated
p623
I1471504634
sVpid
p624
I430148265
sVheight
p625
I533
sVwidth
p626
I799
sVsrc_big
p627
Vhttp://cs631116.vk.me/v631116050/42fc2/sKCsqtOIjBM.jpg
p628
sVsrc_small
p629
Vhttp://cs631116.vk.me/v631116050/42fc0/XTvRUpG-QA8.jpg
p630
sVaid
p631
I-7
sVowner_id
p632
I-69577071
ssVtype
p633
Vphoto
p634
sa(dp635
Vlink
p636
(dp637
Vurl
p638
Vhttp://bfguns.ru/contacts/
p639
sVdescription
p640
V\u0418\u043d\u0442\u0435\u0440\u043d\u0435\u0442-\u043c\u0430\u0433\u0430\u0437\u0438\u043d BFGUNS: \u0412\u0441\u0435 \u0434\u043b\u044f \u0441\u0442\u0440\u0430\u0439\u043a\u0431\u043e\u043b\u0430. \u0414\u043e\u0441\u0442\u0430\u0432\u043a\u0430 \u043f\u043e \u041c\u043e\u0441\u043a\u0432\u0435 \u0438 \u0432\u0441\u0435\u0439 \u0420\u043e\u0441\u0441\u0438\u0438 \u0441\u0442\u0440\u0430\u0439\u043a\u0431\u043e\u043b\u044c\u043d\u043e\u0433\u043e \u0441\u043d\u0430\u0440\u044f\u0436\u0435\u043d\u0438\u044f \u0438 \u043e\u0431\u043e\u0440\u0443\u0434\u043e\u0432\u0430\u043d\u0438\u044f. 8(495) 66 073 66
p641
sVtitle
p642
V\u041a\u043e\u043d\u0442\u0430\u043a\u0442\u044b
p643
ssVtype
p644
Vlink
p645
sasVtext
p646
V\u041d\u0443 \u0430 \u0440\u0430\u0437 \u043c\u044b \u043d\u0430\u0447\u0430\u043b\u0438 \u0434\u0435\u043d\u044c \u0441 \u0410\u041a, \u0442\u043e \u043f\u0440\u043e\u0434\u043e\u043b\u0436\u0438\u043c \u0430\u043a\u0441\u0435\u0441\u0441\u0443\u0430\u0440\u0430\u043c\u0438 \u0434\u043b\u044f \u043d\u0435\u0433\u043e.<br><br>\u0423 \u043d\u0430\u0441 \u0435\u0441\u0442\u044c \u043f\u043e\u043b\u043d\u044b\u0439 \u043a\u043e\u043c\u043f\u043b\u0435\u043a\u0442 \u0441\u0442\u0440\u0430\u0439\u043a\u0431\u043e\u043b\u044c\u043d\u044b\u0445 \u0440\u0435\u043f\u043b\u0438\u043a \u043f\u0440\u043e\u0434\u0443\u043a\u0446\u0438\u0438 U.S. PALM - \u0430\u043c\u0435\u0440\u0438\u043a\u0430\u043d\u0441\u043a\u043e\u0439 \u043a\u043e\u043c\u043f\u0430\u043d\u0438\u0438 \u0438\u0437 \u0433\u043e\u0440\u043e\u0434\u0430 \u0424\u0435\u043d\u0438\u043a\u0441, \u0410\u0440\u0438\u0437\u043e\u043d\u0430, \u0440\u0430\u0437\u0440\u0430\u0431\u0430\u0442\u044b\u0432\u0430\u044e\u0449\u0435\u0439 \u0438 \u043f\u0440\u043e\u0438\u0437\u0432\u043e\u0434\u044f\u0449\u0435\u0439 \u0441\u043d\u0430\u0440\u044f\u0436\u0435\u043d\u0438\u0435 \u0438 \u0430\u043a\u0441\u0435\u0441\u0441\u0443\u0430\u0440\u044b \u0434\u043b\u044f \u0410\u041a. <br><br>\u0418\u0445 \u043c\u0430\u0433\u0430\u0437\u0438\u043d\u044b \u0441\u0447\u0438\u0442\u0430\u044e\u0442\u0441\u044f \u0432\u043e\u043e\u0431\u0449\u0435 \u043b\u0443\u0447\u0448\u0438\u043c\u0438 \u043d\u0430 \u0440\u044b\u043d\u043a\u0435, \u0445\u043e\u0442\u044f \u0438 \u0441\u0442\u043e\u044f\u0442 \u043a\u0430\u043a \u043a\u0440\u044b\u043b\u043e \u043e\u0442 \u0441\u0430\u043c\u043e\u043b\u0435\u0442\u0430. \u0427\u0442\u043e \u0445\u0430\u0440\u0430\u043a\u0442\u0435\u0440\u043d\u043e, \u0441\u0442\u0440\u0430\u0439\u043a\u0431\u043e\u043b\u044c\u043d\u0430\u044f \u0440\u0435\u043f\u043b\u0438\u043a\u0430 \u043e\u0442 PTS \u0442\u043e\u0436\u0435 \u043b\u0443\u0447\u0448\u0435\u0435, \u0447\u0442\u043e \u0441\u043b\u0443\u0447\u0430\u043b\u043e\u0441\u044c \u0441 \u0432\u043b\u0430\u0434\u0435\u043b\u044c\u0446\u0430\u043c\u0438 \u0410\u041a-\u0441\u0435\u0440\u0438\u0438. \u041c\u0430\u0433\u0430\u0437\u0438\u043d\u044b \u0441\u0434\u0435\u043b\u0430\u043d\u044b \u0438\u0437 \u0432\u044b\u0441\u043e\u043a\u043e\u043a\u0430\u0447\u0435\u0441\u0442\u0432\u0435\u043d\u043d\u043e\u0433\u043e \u043f\u043b\u0430\u0441\u0442\u0438\u043a\u0430, \u0438\u043c\u0435\u044e\u0442 \u043f\u0440\u0430\u0432\u0438\u043b\u044c\u043d\u044b\u0435 \u043c\u0430\u0440\u043a\u0438\u0440\u043e\u0432\u043a\u0438 \u0438 \u0432\u043c\u0435\u0449\u0430\u044e\u0442 150 \u0448\u0430\u0440\u043e\u0432. \u0412\u0435\u0449\u044c.<br><br>\u0427\u0442\u043e \u043a\u0430\u0441\u0430\u0435\u0442\u0441\u044f \u043f\u0438\u0441\u0442\u043e\u043b\u0435\u0442\u043d\u043e\u0439 \u0440\u0443\u043a\u043e\u044f\u0442\u043a\u0438, \u0442\u043e \u0443\u0434\u043e\u0431\u0441\u0442\u0432\u043e \u0438 \u044d\u0440\u0433\u043e\u043d\u043e\u043c\u0438\u0447\u043d\u043e\u0441\u0442\u044c \u0442\u0443\u0442 \u0432\u043e\u043f\u0440\u043e\u0441 \u0441\u0443\u0431\u044a\u0435\u043a\u0442\u0438\u0432\u043d\u044b\u0439. \u041e\u0434\u043d\u043e\u0437\u043d\u0430\u0447\u043d\u043e \u043c\u043e\u0436\u043d\u043e \u0441\u043a\u0430\u0437\u0430\u0442\u044c, \u0447\u0442\u043e \u043e\u043d\u0430 \u043b\u0443\u0447\u0448\u0435 \u0448\u0442\u0430\u0442\u043d\u043e\u0439. \u041b\u0443\u0447\u0448\u0435 \u043b\u0438 \u043e\u043d\u0430 \u0430\u043a\u0441\u0435\u0441\u0441\u0443\u0430\u0440\u043e\u0432 \u043e\u0442 \u0434\u0440\u0443\u0433\u0438\u0445 \u043f\u0440\u043e\u0438\u0437\u0432\u043e\u0434\u0438\u0442\u0435\u043b\u0435\u0439, \u0442\u0430\u043a\u0438\u0445 \u043a\u0430\u043a \u041c\u0430\u0433\u043f\u0443\u043b \u0438\u043b\u0438 \u0417\u0435\u043d\u0438\u0442? \u0421\u043a\u043e\u0440\u0435\u0435 \u0432\u0441\u0435\u0433\u043e \u043d\u0435\u0442 \u0438 \u043a\u0430\u0436\u0434\u044b\u0439 \u0434\u043e\u043b\u0436\u0435\u043d \u043f\u043e\u0434\u0431\u0438\u0440\u0430\u0442\u044c \u043c\u043e\u0434\u0435\u043b\u044c \u043f\u043e\u0434 \u043e\u0441\u043e\u0431\u0435\u043d\u043d\u043e\u0441\u0442\u0438 \u0440\u0443\u043a\u0438 \u0438 \u0445\u0432\u0430\u0442\u0430. \u041d\u043e, \u0432 \u043b\u044e\u0431\u043e\u043c \u0441\u043b\u0443\u0447\u0430\u0435, \u044d\u0442\u043e \u043e\u0434\u043d\u0430 \u0438\u0437 \u0442\u0435\u0445 \u043c\u043e\u0434\u0435\u043b\u0435\u0439, \u043a\u043e\u0442\u043e\u0440\u044b\u0435 \u0441\u0442\u043e\u0438\u0442 \u043f\u0440\u0438\u043c\u0435\u0440\u0438\u0442\u044c. <br><br>\u041c\u0430\u0433\u0430\u0437\u0438\u043d \u0410\u041a \u0447\u0435\u0440\u043d\u044b\u0439 - http://goo.gl/nzw55V<br><br>\u041c\u0430\u0433\u0430\u0437\u0438\u043d \u0410\u041a \u043f\u0435\u0441\u043e\u0447\u043d\u044b\u0439 - http://goo.gl/CNdNg2<br><br>\u041f\u0438\u0441\u0442\u043e\u043b\u0435\u0442\u043d\u0430\u044f \u0440\u0443\u043a\u043e\u044f\u0442\u043a\u0430 \u0447\u0435\u0440\u043d\u0430\u044f - http://goo.gl/rIfNQY<br><br>\u041f\u0438\u0441\u0442\u043e\u043b\u0435\u0442\u043d\u0430\u044f \u0440\u0443\u043a\u043e\u044f\u0442\u043a\u0430 \u043f\u0435\u0441\u043e\u0447\u043d\u0430\u044f - http://goo.gl/luC6KE<br><br>\u041d\u0443 \u0438 \u0435\u0441\u043b\u0438 \u0432\u044b \u0432 \u041c\u043e\u0441\u043a\u0432\u0435, \u0442\u043e \u0437\u0430\u0445\u043e\u0434\u0438\u0442\u0435 \u043a \u043d\u0430\u043c \u0432 \u0448\u043e\u0443\u0440\u0443\u043c \u043f\u0440\u043e\u0431\u043e\u0432\u0430\u0442\u044c \u0432 \u0440\u0443\u043a\u0443 - bfguns.ru/contacts/
p647
sVcomments
p648
(dp649
Vcount
p650
I19
ssVto_id
p651
I-69577071
sVpost_type
p652
Vpost
p653
sVattachment
p654
(dp655
Vphoto
p656
(dp657
Vaccess_key
p658
Ve62453789593df91dc
p659
sVsrc
p660
Vhttp://cs631116.vk.me/v631116050/42fa0/l0MjEkTsqE8.jpg
p661
sVuser_id
p662
I100
sVsrc_xbig
p663
Vhttp://cs631116.vk.me/v631116050/42fa2/ZM_jzjTL78I.jpg
p664
sVtext
p665
g18
sVcreated
p666
I1471504634
sVpid
p667
I430148261
sVheight
p668
I933
sVsrc_xxbig
p669
Vhttp://cs631116.vk.me/v631116050/42fa3/LYnOQsn0qVo.jpg
p670
sVwidth
p671
I700
sVsrc_big
p672
Vhttp://cs631116.vk.me/v631116050/42fa1/SLrKw1owgVY.jpg
p673
sVsrc_small
p674
Vhttp://cs631116.vk.me/v631116050/42f9f/f4DB7PRLs5c.jpg
p675
sVaid
p676
I-7
sVowner_id
p677
I-69577071
ssVtype
p678
Vphoto
p679
ssVdate
p680
I1471525318
sVreposts
p681
(dp682
Vcount
p683
I0
ssVid
p684
I4009
sVfrom_id
p685
I-69577071
ssI3980
(dp686
Vlikes
p687
(dp688
Vcount
p689
I15
ssVattachments
p690
(lp691
(dp692
Vphoto
p693
(dp694
Vaccess_key
p695
Vba004e4224c494a1ae
p696
sVsrc
p697
Vhttp://cs631116.vk.me/v631116050/42224/iMWupMVwtx8.jpg
p698
sVuser_id
p699
I100
sVsrc_xbig
p700
Vhttp://cs631116.vk.me/v631116050/42226/EamSHH-Cwzg.jpg
p701
sVtext
p702
g18
sVcreated
p703
I1471420509
sVpid
p704
I430007118
sVheight
p705
I531
sVwidth
p706
I800
sVsrc_big
p707
Vhttp://cs631116.vk.me/v631116050/42225/wrtaDb7ITno.jpg
p708
sVsrc_small
p709
Vhttp://cs631116.vk.me/v631116050/42223/ynO05HU2Jt0.jpg
p710
sVaid
p711
I-7
sVowner_id
p712
I-69577071
ssVtype
p713
Vphoto
p714
sa(dp715
Vphoto
p716
(dp717
Vaccess_key
p718
Vfeb305b733c70fdf78
p719
sVsrc
p720
Vhttp://cs631116.vk.me/v631116050/4222c/7keFjbpeK68.jpg
p721
sVuser_id
p722
I100
sVsrc_xbig
p723
Vhttp://cs631116.vk.me/v631116050/4222e/JIlFljIGgFs.jpg
p724
sVtext
p725
g18
sVcreated
p726
I1471420509
sVpid
p727
I430007122
sVheight
p728
I531
sVwidth
p729
I800
sVsrc_big
p730
Vhttp://cs631116.vk.me/v631116050/4222d/1JIFZwCQZro.jpg
p731
sVsrc_small
p732
Vhttp://cs631116.vk.me/v631116050/4222b/NSpeAM3a-Lc.jpg
p733
sVaid
p734
I-7
sVowner_id
p735
I-69577071
ssVtype
p736
Vphoto
p737
sa(dp738
Vphoto
p739
(dp740
Vaccess_key
p741
Vd8fbc2d08f86588b20
p742
sVsrc
p743
Vhttp://cs631116.vk.me/v631116050/42234/4FbRYTtxCzQ.jpg
p744
sVuser_id
p745
I100
sVsrc_xbig
p746
Vhttp://cs631116.vk.me/v631116050/42236/lgS2xq72JXM.jpg
p747
sVtext
p748
g18
sVcreated
p749
I1471420509
sVpid
p750
I430007126
sVheight
p751
I531
sVwidth
p752
I800
sVsrc_big
p753
Vhttp://cs631116.vk.me/v631116050/42235/t6ibrqOvVZk.jpg
p754
sVsrc_small
p755
Vhttp://cs631116.vk.me/v631116050/42233/qByyNbN2GhI.jpg
p756
sVaid
p757
I-7
sVowner_id
p758
I-69577071
ssVtype
p759
Vphoto
p760
sa(dp761
Vphoto
p762
(dp763
Vaccess_key
p764
Va212f6fd7678ee6958
p765
sVsrc
p766
Vhttp://cs631116.vk.me/v631116050/4223c/3fhNWzpd2ew.jpg
p767
sVuser_id
p768
I100
sVsrc_xbig
p769
Vhttp://cs631116.vk.me/v631116050/4223e/yzN2TmihIlc.jpg
p770
sVtext
p771
g18
sVcreated
p772
I1471420509
sVpid
p773
I430007130
sVheight
p774
I531
sVwidth
p775
I800
sVsrc_big
p776
Vhttp://cs631116.vk.me/v631116050/4223d/RxRvLH8ZnI8.jpg
p777
sVsrc_small
p778
Vhttp://cs631116.vk.me/v631116050/4223b/3WseyiUApts.jpg
p779
sVaid
p780
I-7
sVowner_id
p781
I-69577071
ssVtype
p782
Vphoto
p783
sa(dp784
Vphoto
p785
(dp786
Vaccess_key
p787
Vc216627c6ae84e479a
p788
sVsrc
p789
Vhttp://cs631116.vk.me/v631116050/42244/AjG20xkkMT0.jpg
p790
sVuser_id
p791
I100
sVsrc_xbig
p792
Vhttp://cs631116.vk.me/v631116050/42246/8f0KpoyU1-w.jpg
p793
sVtext
p794
g18
sVcreated
p795
I1471420509
sVpid
p796
I430007132
sVheight
p797
I531
sVwidth
p798
I800
sVsrc_big
p799
Vhttp://cs631116.vk.me/v631116050/42245/t_pMWBl0I7U.jpg
p800
sVsrc_small
p801
Vhttp://cs631116.vk.me/v631116050/42243/8cQ9PMX9-h8.jpg
p802
sVaid
p803
I-7
sVowner_id
p804
I-69577071
ssVtype
p805
Vphoto
p806
sa(dp807
Vphoto
p808
(dp809
Vaccess_key
p810
V28e9ebd0ad5c512b15
p811
sVsrc
p812
Vhttp://cs631116.vk.me/v631116050/4224c/u9qaShLSAEU.jpg
p813
sVuser_id
p814
I100
sVsrc_xbig
p815
Vhttp://cs631116.vk.me/v631116050/4224e/sXFo3Xomp3Y.jpg
p816
sVtext
p817
g18
sVcreated
p818
I1471420509
sVpid
p819
I430007134
sVheight
p820
I531
sVwidth
p821
I800
sVsrc_big
p822
Vhttp://cs631116.vk.me/v631116050/4224d/d25GosnSNs0.jpg
p823
sVsrc_small
p824
Vhttp://cs631116.vk.me/v631116050/4224b/hstdMYI_GoI.jpg
p825
sVaid
p826
I-7
sVowner_id
p827
I-69577071
ssVtype
p828
Vphoto
p829
sa(dp830
Vlink
p831
(dp832
Vurl
p833
Vhttp://bfguns.ru
p834
sVimage_src
p835
Vhttp://cs630816.vk.me/v630816050/46080/tZ9wUUDuTD0.jpg
p836
sVdescription
p837
g18
sVtitle
p838
VBFG Shop
p839
ssVtype
p840
Vlink
p841
sasVtext
p842
V\u0412 \u044d\u0442\u043e\u0442 \u0434\u0435\u043d\u044c \u0432 1998 \u0433\u043e\u0434\u0443 \u041f\u0440\u0435\u0437\u0438\u0434\u0435\u043d\u0442 \u0421\u0428\u0410 \u0411\u0438\u043b\u043b \u041a\u043b\u0438\u043d\u0442\u043e\u043d \u0434\u0430\u0432\u0430\u043b \u043f\u043e\u043a\u0430\u0437\u0430\u043d\u0438\u044f \u0442.\u043d. "\u0431\u043e\u043b\u044c\u0448\u043e\u043c\u0443 \u0436\u044e\u0440\u0438" \u043f\u043e \u0434\u0435\u043b\u0443 \u041c\u043e\u043d\u0438\u043a\u0438 \u041b\u0435\u0432\u0438\u043d\u0441\u043a\u0438 (\u0435\u0441\u043b\u0438 \u0432\u044b \u0442\u0430\u043a\u043e\u0439 \u043d\u044c\u044e\u0444\u0430\u0433, \u0447\u0442\u043e \u043d\u0435 \u0432 \u043a\u0443\u0440\u0441\u0435, \u0442\u043e \u0432\u043e\u0442 \u043b\u0438\u043d\u043a: https://goo.gl/z6PMRV)<br><br>\u041a\u043e\u0440\u043e\u0447\u0435, \u0432 \u0441\u0432\u044f\u0437\u0438 \u0441 \u0442\u0430\u043a\u043e\u0439 \u0437\u043d\u0430\u043c\u0435\u043d\u0430\u0442\u0435\u043b\u044c\u043d\u043e\u0439 \u0434\u0430\u0442\u043e\u0439 \u0443 \u043d\u0430\u0441 \u0441\u0435\u0433\u043e\u0434\u043d\u044f \u0442\u043e\u0436\u0435 \u0431\u0443\u0434\u0435\u0442 \u0434\u043b\u0438\u043d\u043d\u0430\u044f \u0438 \u0442\u044f\u0436\u0435\u043b\u0430\u044f \u0430\u043c\u0435\u0440\u0438\u043a\u0430\u043d\u0441\u043a\u0430\u044f \u0432\u0438\u043d\u0442\u043e\u0432\u043a\u0430 - M-14 DMR.<br><br>DMR - Designated Marksman Rifle - \u0441\u043f\u0435\u0446\u0438\u0430\u043b\u044c\u043d\u0430\u044f \u043a\u0430\u0441\u0442\u043e\u043c\u043d\u0430\u044f \u0432\u0435\u0440\u0441\u0438\u044f \u0432\u0438\u043d\u0442\u043e\u0432\u043a\u0438 M-14, \u043a\u043e\u0442\u043e\u0440\u0443\u044e \u0434\u0435\u043b\u0430\u043b\u0438 \u0434\u043b\u044f \u0441\u043d\u0430\u0439\u043f\u0435\u0440\u043e\u0432 \u041a\u043e\u0440\u043f\u0443\u0441\u0430 \u041c\u043e\u0440\u0441\u043a\u043e\u0439 \u041f\u0435\u0445\u043e\u0442\u044b \u0421\u0428\u0410 \u0432 \u041a\u0432\u0430\u043d\u0442\u0438\u043a\u043e. \u0412\u0438\u043d\u0442\u043e\u0432\u043a\u0430 \u0438\u0441\u043f\u043e\u043b\u044c\u0437\u043e\u0432\u0430\u043b\u0430\u0441\u044c \u043f\u0440\u0438\u043c\u0435\u0440\u043d\u043e \u043c\u0435\u0436\u0434\u0443 2001 \u0438 2010 \u0433\u043e\u0434\u0430\u043c\u0438. <br><br>\u0418\u043d\u0442\u0435\u043d\u0441\u0438\u0432\u043d\u0430\u044f \u043a\u0430\u0441\u0442\u043e\u043c\u0438\u0437\u0430\u0446\u0438\u044f \u0432\u043a\u043b\u044e\u0447\u0430\u043b\u0430 \u0432 \u0441\u0435\u0431\u044f \u0443\u0441\u0442\u0430\u043d\u043e\u0432\u043a\u0443 22 \u0434\u044e\u0439\u043c\u043e\u0432\u043e\u0433\u043e (560 \u043c\u043c) \u0441\u0442\u0432\u043e\u043b\u0430 \u043e\u0442 Krieger Barrels Inc, \u043b\u043e\u0436\u0430 \u0438\u0437 \u043f\u043b\u0430\u0441\u0442\u0438\u043a\u0430 \u0441 \u043f\u0438\u0441\u0442\u043e\u043b\u0435\u0442\u043d\u043e\u0439 \u0440\u0443\u043a\u043e\u044f\u0442\u043a\u043e\u0439 M2A \u043e\u0442 McMillan Tactical, \u0443\u0441\u0442\u0430\u043d\u043e\u0432\u043a\u0443 \u0441\u0442\u0430\u043d\u0434\u0430\u0440\u0442\u043d\u043e\u0439 \u043f\u043b\u0430\u043d\u043a\u0438 \u041f\u0438\u043a\u0430\u0442\u0438\u043d\u043d\u0438 MIL-STD-1913 \u0434\u043b\u044f \u043a\u0440\u0435\u043f\u043b\u0435\u043d\u0438\u044f \u043f\u0440\u0438\u0446\u0435\u043b\u043e\u0432, \u0441\u043e\u0448\u0435\u043a Harris S-L \u0438 \u0434\u0440\u0443\u0433\u0438\u0435 \u0438\u0437\u043c\u0435\u043d\u0435\u043d\u0438\u044f.<br><br>\u0423 \u043d\u0430\u0441 \u0432\u044b \u043c\u043e\u0436\u0435\u0442\u0435 \u043f\u0440\u0438\u043e\u0431\u0440\u0435\u0441\u0442\u0438 \u043f\u0440\u0435\u0432\u043e\u0441\u0445\u043e\u0434\u043d\u0443\u044e \u0440\u0435\u043f\u043b\u0438\u043a\u0443 \u0434\u0430\u043d\u043d\u043e\u0439 \u0432\u0438\u043d\u0442\u043e\u0432\u043a\u0438 \u043f\u0440\u043e\u0438\u0437\u0432\u043e\u0434\u0441\u0442\u0432\u0430 G&amp;P. \u0411\u043e\u043b\u0435\u0435 \u0442\u043e\u0433\u043e, \u0432 \u043a\u043e\u043c\u043f\u043b\u0435\u043a\u0442\u0435 \u043a \u0432\u0438\u043d\u0442\u043e\u0432\u043a\u0435 \u043c\u044b \u043f\u043e\u0434\u0430\u0440\u0438\u043c \u0432\u0430\u043c 10 \u043c\u0430\u0433\u0430\u0437\u0438\u043d\u043e\u0432 \u043e\u0442 King Arms \u0438 5 \u043f\u0435\u0442\u0435\u043b\u044c \u043e\u0442 Magpul. <br><br>\u0417\u0430\u043a\u0430\u0437\u044b\u0432\u0430\u0439\u0442\u0435 \u0443 \u043d\u0430\u0441 \u043d\u0430 \u0441\u0430\u0439\u0442\u0435 \u0441 \u0434\u043e\u0441\u0442\u0430\u0432\u043a\u043e\u0439 \u043f\u043e \u0420\u043e\u0441\u0441\u0438\u0438 \u0438 \u0441\u0442\u0440\u0430\u043d\u0430\u043c \u0422\u0430\u043c\u043e\u0436\u0435\u043d\u043d\u043e\u0433\u043e \u0421\u043e\u044e\u0437\u0430 - http://goo.gl/lCeVc0<br><br>\u041f\u0440\u0438\u0445\u043e\u0434\u0438\u0442\u0435 \u043a \u043d\u0430\u043c \u043f\u0440\u0438\u043b\u043e\u0436\u0438\u0442\u044c\u0441\u044f, \u0432\u0435\u0434\u044c \u0441\u043d\u0430\u0439\u043f\u0435\u0440\u043a\u0430 \u0434\u043e\u043b\u0436\u043d\u0430 \u043b\u0435\u0436\u0430\u0442\u044c \u0432 \u0440\u0443\u043a\u0430\u0445 - bfguns.ru/contacts/
p843
sVcomments
p844
(dp845
Vcount
p846
I14
ssVto_id
p847
I-69577071
sVpost_type
p848
Vpost
p849
sVattachment
p850
(dp851
Vphoto
p852
(dp853
Vaccess_key
p854
Vba004e4224c494a1ae
p855
sVsrc
p856
Vhttp://cs631116.vk.me/v631116050/42224/iMWupMVwtx8.jpg
p857
sVuser_id
p858
I100
sVsrc_xbig
p859
Vhttp://cs631116.vk.me/v631116050/42226/EamSHH-Cwzg.jpg
p860
sVtext
p861
g18
sVcreated
p862
I1471420509
sVpid
p863
I430007118
sVheight
p864
I531
sVwidth
p865
I800
sVsrc_big
p866
Vhttp://cs631116.vk.me/v631116050/42225/wrtaDb7ITno.jpg
p867
sVsrc_small
p868
Vhttp://cs631116.vk.me/v631116050/42223/ynO05HU2Jt0.jpg
p869
sVaid
p870
I-7
sVowner_id
p871
I-69577071
ssVtype
p872
Vphoto
p873
ssVdate
p874
I1471424588
sVreposts
p875
(dp876
Vcount
p877
I0
ssVid
p878
I3980
sVfrom_id
p879
I-69577071
ssI3998
(dp880
Vlikes
p881
(dp882
Vcount
p883
I15
ssVattachments
p884
(lp885
(dp886
Vphoto
p887
(dp888
Vaccess_key
p889
Vd10e723aa40659a832
p890
sVsrc
p891
Vhttp://cs631116.vk.me/v631116050/42254/4_W9QR2bkmE.jpg
p892
sVuser_id
p893
I100
sVsrc_xbig
p894
Vhttp://cs631116.vk.me/v631116050/42256/3QuAUk5VNt0.jpg
p895
sVtext
p896
g18
sVcreated
p897
I1471421339
sVpid
p898
I430008968
sVheight
p899
I531
sVwidth
p900
I800
sVsrc_big
p901
Vhttp://cs631116.vk.me/v631116050/42255/EifY7ehCItc.jpg
p902
sVsrc_small
p903
Vhttp://cs631116.vk.me/v631116050/42253/4y-awU1vNVg.jpg
p904
sVaid
p905
I-7
sVowner_id
p906
I-69577071
ssVtype
p907
Vphoto
p908
sa(dp909
Vphoto
p910
(dp911
Vaccess_key
p912
Vb538c27fd284fa3b59
p913
sVsrc
p914
Vhttp://cs631116.vk.me/v631116050/4225c/X4HbV8bXp_A.jpg
p915
sVuser_id
p916
I100
sVsrc_xbig
p917
Vhttp://cs631116.vk.me/v631116050/4225e/2pgVn8lGdC4.jpg
p918
sVtext
p919
g18
sVcreated
p920
I1471421339
sVpid
p921
I430008970
sVheight
p922
I531
sVwidth
p923
I800
sVsrc_big
p924
Vhttp://cs631116.vk.me/v631116050/4225d/UDqeO6_TDX8.jpg
p925
sVsrc_small
p926
Vhttp://cs631116.vk.me/v631116050/4225b/PhXuHPaz13c.jpg
p927
sVaid
p928
I-7
sVowner_id
p929
I-69577071
ssVtype
p930
Vphoto
p931
sa(dp932
Vphoto
p933
(dp934
Vaccess_key
p935
V10122dc96b5c79e582
p936
sVsrc
p937
Vhttp://cs631116.vk.me/v631116050/42264/-4oSVtxTecE.jpg
p938
sVuser_id
p939
I100
sVsrc_xbig
p940
Vhttp://cs631116.vk.me/v631116050/42266/kW8d_fbQNYM.jpg
p941
sVtext
p942
g18
sVcreated
p943
I1471421339
sVpid
p944
I430008972
sVheight
p945
I531
sVwidth
p946
I800
sVsrc_big
p947
Vhttp://cs631116.vk.me/v631116050/42265/5qyR8TTMNZw.jpg
p948
sVsrc_small
p949
Vhttp://cs631116.vk.me/v631116050/42263/b3JCFv8PTmI.jpg
p950
sVaid
p951
I-7
sVowner_id
p952
I-69577071
ssVtype
p953
Vphoto
p954
sa(dp955
Vphoto
p956
(dp957
Vaccess_key
p958
Vc475ef12e5fe4bb82d
p959
sVsrc
p960
Vhttp://cs631116.vk.me/v631116050/4226c/ucMy3u0B7to.jpg
p961
sVuser_id
p962
I100
sVsrc_xbig
p963
Vhttp://cs631116.vk.me/v631116050/4226e/6zuvjkoy-sw.jpg
p964
sVtext
p965
g18
sVcreated
p966
I1471421339
sVpid
p967
I430008973
sVheight
p968
I531
sVwidth
p969
I800
sVsrc_big
p970
Vhttp://cs631116.vk.me/v631116050/4226d/fpcyxxcsOG8.jpg
p971
sVsrc_small
p972
Vhttp://cs631116.vk.me/v631116050/4226b/eumNkoKip5M.jpg
p973
sVaid
p974
I-7
sVowner_id
p975
I-69577071
ssVtype
p976
Vphoto
p977
sa(dp978
Vphoto
p979
(dp980
Vaccess_key
p981
Vb34868555178972af6
p982
sVsrc
p983
Vhttp://cs631116.vk.me/v631116050/42274/2qhyt1z9BfE.jpg
p984
sVuser_id
p985
I100
sVsrc_xbig
p986
Vhttp://cs631116.vk.me/v631116050/42276/in-xFuL3bFw.jpg
p987
sVtext
p988
g18
sVcreated
p989
I1471421339
sVpid
p990
I430008976
sVheight
p991
I531
sVwidth
p992
I800
sVsrc_big
p993
Vhttp://cs631116.vk.me/v631116050/42275/-AOKvEvDbss.jpg
p994
sVsrc_small
p995
Vhttp://cs631116.vk.me/v631116050/42273/cKi7M28u5c0.jpg
p996
sVaid
p997
I-7
sVowner_id
p998
I-69577071
ssVtype
p999
Vphoto
p1000
sa(dp1001
Vlink
p1002
(dp1003
Vurl
p1004
Vhttp://bfguns.ru
p1005
sVdescription
p1006
g18
sVtitle
p1007
VBFG Shop
p1008
ssVtype
p1009
Vlink
p1010
sasVtext
p1011
V\u041d\u0430\u0434\u043e \u0441\u043a\u0430\u0437\u0430\u0442\u044c, \u0447\u0442\u043e \u0432 \u044d\u0442\u043e\u0442 \u0436\u0435 \u0434\u0435\u043d\u044c, \u0432 \u0442\u043e\u043c \u0436\u0435 1998 \u0433\u043e\u0434\u0443, \u043a\u043e\u0433\u0434\u0430 \u041a\u043b\u0438\u043d\u0442\u043e\u043d \u0432\u044b\u0441\u0442\u0443\u043f\u0430\u043b \u043f\u0435\u0440\u0435\u0434 \u0436\u044e\u0440\u0438 \u043f\u043e \u0441\u0432\u043e\u0435\u043c\u0443 \u0434\u0435\u043b\u0443, \u0432 \u043d\u0430\u0448\u0435 \u0441\u0442\u0440\u0430\u043d\u0435 \u0441\u043b\u0443\u0447\u0438\u043b\u043e\u0441\u044c \u0441\u0432\u043e\u0435 "\u0444\u0430\u043b\u043b\u0438\u0447\u0435\u0441\u043a\u043e\u0435" \u0441\u043e\u0431\u044b\u0442\u0438\u0435 - \u0432\u043b\u0430\u0441\u0442\u0438 \u043e\u0431\u044a\u044f\u0432\u0438\u043b\u0438 \u0442\u0435\u0445\u043d\u0438\u0447\u0435\u0441\u043a\u0438\u0439 \u0434\u0435\u0444\u043e\u043b\u0442 \u043f\u043e \u0433\u043e\u0441\u0443\u0434\u0430\u0440\u0441\u0442\u0432\u0435\u043d\u043d\u044b\u043c \u0434\u043e\u043b\u0433\u043e\u0432\u044b\u043c \u043e\u0431\u044f\u0437\u0430\u0442\u0435\u043b\u044c\u0441\u0442\u0432\u0430\u043c. <br><br>\u0423 \u043d\u0430\u0441 \u0441 \u044d\u0442\u0438\u043c \u0430\u0441\u0441\u043e\u0446\u0438\u0438\u0440\u0443\u0435\u0442\u0441\u044f \u0432\u043e\u0442 \u044d\u0442\u043e\u0442 \u0432\u043e\u0442 \u043e\u0433\u0440\u043e\u043c\u043d\u044b\u0439 \u0440\u0435\u0432\u043e\u043b\u044c\u0432\u0435\u0440 - Ragin Bull 8.375 \u0434\u044e\u0439\u043c\u0430 \u043a\u0430\u043b\u0438\u0431\u0440\u043e\u043c 8 \u043c\u043c \u043e\u0442 Marushin \u0441 \u0441\u0438\u0441\u0442\u0435\u043c\u043e\u0439 X-Cartridge.<br><br>Raging Bull - \u044d\u0442\u043e \u0431\u043e\u043b\u044c\u0448\u043e\u0439 \u0440\u0435\u0432\u043e\u043b\u044c\u0432\u0435\u0440 \u043f\u0440\u043e\u0438\u0437\u0432\u043e\u0434\u0441\u0442\u0432\u0430 \u043a\u043e\u043c\u043f\u0430\u043d\u0438\u0438 Taurus \u043f\u0440\u0435\u0434\u043d\u0430\u0437\u043d\u0430\u0447\u0435\u043d\u043d\u044b\u0439 \u0434\u043b\u044f \u043e\u0445\u043e\u0442\u043d\u0438\u043a\u043e\u0432, \u0432 \u0441\u0432\u044f\u0437\u0438 \u0441 \u0447\u0435\u043c \u0432\u044b\u043f\u0443\u0441\u043a\u0430\u044e\u0449\u0438\u0439\u0441\u044f \u043f\u043e\u0434 \u043a\u0430\u043b\u0438\u0431\u0440\u044b \u0441 \u043a\u043e\u043b\u043e\u0441\u0441\u0430\u043b\u044c\u043d\u043e\u0439 \u043e\u0441\u0442\u0430\u043d\u0430\u0432\u043b\u0438\u0432\u0430\u044e\u0449\u0435\u0439 \u0441\u0438\u043b\u043e\u0439. \u041d\u0430\u043f\u0440\u0438\u043c\u0435\u0440 .454 Casull, \u043a\u043e\u0442\u043e\u0440\u044b\u0439 \u043c\u043e\u0436\u0435\u0442 \u0437\u0430\u0432\u0430\u043b\u0438\u0442\u044c \u0431\u0443\u0439\u0432\u043e\u043b\u0430 \u0438\u043b\u0438 \u0434\u0430\u0436\u0435 \u0441\u043b\u043e\u043d\u0430.<br> <br>Raging Bull \u0438\u043c\u0435\u0435\u0442 \u0432\u0441\u0442\u0440\u043e\u0435\u043d\u043d\u044b\u0439 \u0432 \u0441\u0442\u0432\u043e\u043b \u0414\u0422\u041a, \u0430 \u0442\u0430\u043a\u0436\u0435 \u043a\u0440\u0430\u0441\u043d\u0443\u044e \u0440\u0435\u0437\u0438\u043d\u043e\u0432\u0443\u044e \u043f\u043e\u043b\u043e\u0441\u0443 \u043d\u0430 \u0437\u0430\u0434\u043d\u0435\u0439 \u0441\u0442\u043e\u0440\u043e\u043d\u0435 \u043f\u0438\u0441\u0442\u043e\u043b\u0435\u0442\u043d\u043e\u0439, \u0434\u043b\u044f \u043e\u0431\u043b\u0435\u0433\u0447\u0435\u043d\u0438\u044f \u0441\u0442\u0440\u0435\u043b\u044c\u0431\u044b \u043a\u0440\u0443\u043f\u043d\u043e\u043a\u0430\u043b\u0438\u0431\u0435\u0440\u043d\u044b\u043c\u0438 \u043f\u0430\u0442\u0440\u043e\u043d\u0430\u043c\u0438. \u041a\u043e\u043d\u0435\u0447\u043d\u043e \u044d\u0442\u043e \u0432\u0441\u0451 \u0430\u043a\u0442\u0443\u0430\u043b\u044c\u043d\u043e \u043d\u0430 \u0431\u043e\u0435\u0432\u043e\u043c, \u043d\u043e \u043d\u0430 \u0440\u0435\u043f\u043b\u0438\u043a\u0435 \u0432\u044b\u043f\u043e\u043b\u043d\u044f\u0435\u0442 \u0447\u0438\u0441\u0442\u043e \u044d\u0441\u0442\u0435\u0442\u0438\u0447\u0435\u0441\u043a\u0438\u0435 \u0444\u0443\u043d\u043a\u0446\u0438\u0438. \u0421 \u0442\u0435\u0445\u043d\u0438\u0447\u0435\u0441\u043a\u043e\u0439 \u0442\u043e\u0447\u043a\u0438 \u0437\u0440\u0435\u043d\u0438\u044f Raging Bull \u043f\u0440\u0435\u0434\u0441\u0442\u0430\u0432\u043b\u044f\u0435\u0442 \u0441\u043e\u0431\u043e\u0439 \u0440\u0435\u0432\u043e\u043b\u044c\u0432\u0435\u0440 \u0441 \u0446\u0435\u043b\u044c\u043d\u043e\u0439 \u0440\u0430\u043c\u043a\u043e\u0439, \u043e\u0442\u043a\u0438\u0434\u043d\u044b\u043c \u0434\u043b\u044f \u043f\u0435\u0440\u0435\u0437\u0430\u0440\u044f\u0436\u0430\u043d\u0438\u044f \u0431\u0430\u0440\u0430\u0431\u0430\u043d\u043e\u043c \u0438 \u0443\u0434\u0430\u0440\u043d\u043e-\u0441\u043f\u0443\u0441\u043a\u043e\u0432\u044b\u043c \u043c\u0435\u0445\u0430\u043d\u0438\u0437\u043c\u043e\u043c \u0434\u0432\u043e\u0439\u043d\u043e\u0433\u043e \u0434\u0435\u0439\u0441\u0442\u0432\u0438\u044f. \u041f\u0440\u0438\u0446\u0435\u043b\u044c\u043d\u044b\u0435 \u043f\u0440\u0438\u0441\u043f\u043e\u0441\u043e\u0431\u043b\u0435\u043d\u0438\u044f \u2013 \u043e\u0442\u043a\u0440\u044b\u0442\u044b\u0435 \u2013 \u0444\u0438\u043a\u0441\u0438\u0440\u043e\u0432\u0430\u043d\u043d\u0430\u044f \u043c\u0443\u0448\u043a\u0430 \u0438 \u0440\u0435\u0433\u0443\u043b\u0438\u0440\u0443\u0435\u043c\u044b\u0439 \u0446\u0435\u043b\u0438\u043a.<br><br>\u0420\u0435\u043f\u043b\u0438\u043a\u0430 \u043e\u0442 Marushin \u0432\u044b\u043f\u043e\u043b\u043d\u0435\u043d\u0430 \u043e\u0447\u0435\u043d\u044c \u043a\u0430\u0447\u0435\u0441\u0442\u0432\u0435\u043d\u043d\u043e \u0438 \u0442\u0440\u0430\u0434\u0438\u0446\u0438\u043e\u043d\u043d\u044b\u043c \u0434\u043b\u044f \u044f\u043f\u043e\u043d\u0446\u0435\u0432 \u0432\u043d\u0438\u043c\u0430\u043d\u0438\u0435\u043c \u043a \u0434\u0435\u0442\u0430\u043b\u044f\u043c \u0438 \u043c\u0435\u043b\u043e\u0447\u0430\u043c. \u0420\u0435\u0432\u043e\u043b\u044c\u0432\u0435\u0440 \u0432\u0445\u043e\u0434\u0438\u0442 \u0432 \u0441\u0435\u043c\u0435\u0439\u0441\u0442\u0432\u043e X-Cartridge \u0438 \u0440\u0430\u0431\u043e\u0442\u0430\u0435\u0442 \u0441\u043e \u0441\u043f\u0435\u0446\u0438\u0430\u043b\u044c\u043d\u044b\u043c\u0438 \u043a\u0430\u0440\u0442\u0440\u0438\u0434\u0436\u0430\u043c\u0438, \u0438\u043c\u0438\u0442\u0438\u0440\u0443\u044e\u0449\u0438\u043c\u0438 \u043f\u0430\u0442\u0440\u043e\u043d\u044b, \u0432 \u043a\u0430\u0436\u0434\u044b\u0439 \u0438\u0437 \u043a\u043e\u0442\u043e\u0440\u044b\u0445 \u0437\u0430\u0440\u044f\u0436\u0430\u0435\u0442\u0441\u044f \u043f\u043e \u043e\u0434\u043d\u043e\u043c\u0443 8 \u043c\u043c \u0448\u0430\u0440\u0438\u043a\u0443. \u0413\u0430\u0437 \u0437\u0430\u0440\u044f\u0436\u0430\u0435\u0442\u0441\u044f \u0432 \u043f\u0438\u0441\u0442\u043e\u043b\u0435\u0442\u043d\u0443\u044e \u0440\u0443\u043a\u043e\u044f\u0442\u043a\u0443, \u0447\u0435\u0440\u0435\u0437 \u043a\u043b\u0430\u043f\u0430\u043d \u0432 \u043e\u0441\u043d\u043e\u0432\u0430\u043d\u0438\u0438 \u0438 \u0435\u0433\u043e \u0434\u043e\u0441\u0442\u0430\u0442\u043e\u0447\u043d\u043e, \u0447\u0442\u043e\u0431\u044b \u043e\u0442\u0441\u0442\u0440\u0435\u043b\u044f\u0442\u044c \u0432\u0441\u0435 6 \u0433\u0438\u043b\u044c\u0437. \u0412\u044b\u0445\u043b\u043e\u043f \u0432 73 \u043c/\u0441 (8 \u043c\u043c \u0448\u0430\u0440\u043e\u043c \u0432\u0435\u0441\u043e\u043c 0.35 \u0433) \u0434\u0435\u043b\u0430\u0435\u0442 \u044d\u0442\u043e\u0442 \u0440\u0435\u0432\u043e\u043b\u044c\u0432\u0435\u0440 \u0434\u043e\u0432\u043e\u043b\u044c\u043d\u043e \u0432\u043d\u0443\u0448\u0438\u0442\u0435\u043b\u044c\u043d\u044b\u043c \u043e\u0440\u0443\u0436\u0438\u0435\u043c. <br><br>\u0417\u0430\u043a\u0430\u0437\u044b\u0432\u0430\u0439\u0442\u0435, \u0435\u0441\u043b\u0438 \u0445\u043e\u0442\u0438\u0442\u0435 \u0438\u043c\u0435\u0442\u044c \u0440\u0435\u0430\u043b\u044c\u043d\u043e \u0431\u043e\u043b\u044c\u0448\u043e\u0439 \u0441\u0442\u0432\u043e\u043b - http://goo.gl/h8jGFs<br><br>\u0418 \u0437\u0430\u0445\u043e\u0434\u0438\u0442\u0435 \u0441\u043c\u043e\u0442\u0440\u0435\u0442\u044c \u0438 \u043f\u043e\u043a\u0443\u043f\u0430\u0442\u044c \u0434\u0440\u0443\u0433\u0438\u0435 \u0431\u043e\u043b\u044c\u0448\u0438\u0435 \u0441\u0442\u0432\u043e\u043b\u044b, \u0443 \u043d\u0430\u0441 \u0438\u0445 \u0435\u0441\u0442\u044c - bfguns.ru/contacts/
p1012
sVcomments
p1013
(dp1014
Vcount
p1015
I0
ssVto_id
p1016
I-69577071
sVpost_type
p1017
Vpost
p1018
sVattachment
p1019
(dp1020
Vphoto
p1021
(dp1022
Vaccess_key
p1023
Vd10e723aa40659a832
p1024
sVsrc
p1025
Vhttp://cs631116.vk.me/v631116050/42254/4_W9QR2bkmE.jpg
p1026
sVuser_id
p1027
I100
sVsrc_xbig
p1028
Vhttp://cs631116.vk.me/v631116050/42256/3QuAUk5VNt0.jpg
p1029
sVtext
p1030
g18
sVcreated
p1031
I1471421339
sVpid
p1032
I430008968
sVheight
p1033
I531
sVwidth
p1034
I800
sVsrc_big
p1035
Vhttp://cs631116.vk.me/v631116050/42255/EifY7ehCItc.jpg
p1036
sVsrc_small
p1037
Vhttp://cs631116.vk.me/v631116050/42253/4y-awU1vNVg.jpg
p1038
sVaid
p1039
I-7
sVowner_id
p1040
I-69577071
ssVtype
p1041
Vphoto
p1042
ssVdate
p1043
I1471438934
sVreposts
p1044
(dp1045
Vcount
p1046
I1
ssVid
p1047
I3998
sVfrom_id
p1048
I-69577071
ss.